(iGraphic_Interface.Windows.BatSound
SerializedData
p0
(dp1
S'pow_GridX'
p2
I00
sS'osc_background'
p3
csip
_unpickle_type
p4
(S'PyQt4.QtGui'
p5
S'QColor'
p6
(I255
I255
I255
I255
tp7
tp8
Rp9
sS'pow_GridY'
p10
I00
sS'pow_Back'
p11
g4
(g5
S'QColor'
p12
(I85
I85
I0
I255
tp13
tp14
Rp15
sS'pow_Plot'
p16
g4
(g5
S'QColor'
p17
(I0
I85
I127
I255
tp18
tp19
Rp20
sS'osc_plot'
p21
g4
(g5
S'QColor'
p22
(I85
I170
I255
I255
tp23
tp24
Rp25
sS'osc_GridY'
p26
I01
sS'osc_GridX'
p27
I00
sb.