(iGraphic_Interface.Windows.WorkTheme
SerializedData
p0
(dp1
S'pow_GridX'
p2
I01
sS'osc_background'
p3
S'000'
p4
sS'pow_GridY'
p5
I01
sS'pow_Back'
p6
g4
sS'spec_background'
p7
g4
sS'pow_Plot'
p8
S'fff'
p9
sS'histRange'
p10
(I5
I50
tp11
sS'colorBarState'
p12
(dp13
S'ticks'
p14
(lp15
(F0.0
(I0
I0
I0
I255
tp16
tp17
a(F1.0
(I255
I255
I255
I255
tp18
tp19
asS'mode'
p20
S'rgb'
p21
ssS'osc_plot'
p22
g9
sS'osc_GridY'
p23
I01
sS'osc_GridX'
p24
I01
sb.