ccopy_reg
_reconstructor
p0
(cgraphic_interface.Settings.Workspace
Workspace
p1
c__builtin__
object
p2
Ntp3
Rp4
(dp5
S'spectrogramWorkspace'
p6
g0
(cgraphic_interface.Settings.Workspace
SpectrogramWorkspace
p7
g2
Ntp8
Rp9
(dp10
S'maxY'
p11
F11025.0
sS'FFTSize'
p12
I512
sS'FFTOverlap'
p13
I-1
sS'minY'
p14
F0.0
sS'theme'
p15
(igraphic_interface.Settings.WorkTheme
SpectrogramTheme
p16
(dp17
S'background_color'
p18
csip
_unpickle_type
p19
(S'PyQt4.QtGui'
p20
S'QColor'
p21
(I255
I255
I255
I255
tp22
tp23
Rp24
sS'colorBarState'
p25
(dp26
S'ticks'
p27
(lp28
(F0.6666
(I255
I0
I0
I255
tp29
tp30
a(I1
(I0
I0
I0
I255
tp31
tp32
a(I0
(I255
I255
I255
I255
tp33
tp34
a(F0.3333
(I255
I255
I0
I255
tp35
tp36
asS'mode'
p37
S'rgb'
p38
ssS'gridY'
p39
I01
sS'histRange'
p40
(I-42
I-6
tp41
sS'gridX'
p42
I01
sbsS'_FFTWindow'
p43
S'Hanning'
p44
sbsS'oneDimensionalWorkspace'
p45
g0
(cgraphic_interface.Settings.Workspace
OneDimensionalWorkspace
p46
g2
Ntp47
Rp48
(dp49
g15
(igraphic_interface.Settings.WorkTheme
OneDimensionalTheme
p50
(dp51
g39
I01
sg18
S'000'
p52
sg42
I01
sS'plot_color'
p53
S'FFF'
p54
sbsbsS'language'
p55
VI18n/qt_es.qm
p56
sS'oscillogramWorkspace'
p57
g0
(cgraphic_interface.Settings.Workspace
OscillogramWorkspace
p58
g2
Ntp59
Rp60
(dp61
g14
F-100.0
sg15
(igraphic_interface.Settings.WorkTheme
OscillogramTheme
p62
(dp63
g39
I01
sg18
g19
(g20
S'QColor'
p64
(I255
I255
I255
I255
tp65
tp66
Rp67
sg42
I01
sS'connectPoints'
p68
I01
sg53
g19
(g20
S'QColor'
p69
(I0
I0
I0
I255
tp70
tp71
Rp72
sbsg11
F100.0
sbsS'detectionWorkspace'
p73
g0
(cgraphic_interface.Settings.Workspace
DetectionWorkspace
p74
g2
Ntp75
Rp76
(dp77
g15
(igraphic_interface.Settings.WorkTheme
DetectionTheme
p78
(dp79
S'endColor'
p80
g54
sS'quart2Color'
p81
g54
sS'startColor'
p82
g54
sS'quart1Color'
p83
g54
sS'centerColor'
p84
g54
sbsbsS'tabPosition'
p85
I0
sS'tabShape'
p86
I0
sS'theme_file'
p87
VUtils\u005cThemes/batsoundLike.dth
p88
sS'style'
p89
Vstyles/classic.qss
p90
sS'openedFiles'
p91
(lp92
sS'recentFiles'
p93
(lp94
VD:/Fac Biologia/ficheros de audio/Clasif/c2.wav
p95
aVD:/Fac Biologia/ficheros de audio/Clasif/Calls Figure 1-por familia.wav
p96
aVD:/Fac Biologia/ficheros de audio/Clasif/callsfigures1bat.wav
p97
aVD:/Fac Biologia/ficheros de audio/Clasif/aves1.wav
p98
aVD:/Fac Biologia/ficheros de audio/Clasif/aves2.wav
p99
asb.