ccopy_reg
_reconstructor
p0
(cgraphic_interface.Settings.Workspace
Workspace
p1
c__builtin__
object
p2
Ntp3
Rp4
(dp5
S'spectrogramWorkspace'
p6
g0
(cgraphic_interface.Settings.Workspace
SpectrogramWorkspace
p7
g2
Ntp8
Rp9
(dp10
S'maxY'
p11
F4000.0
sS'FFTSize'
p12
I512
sS'FFTOverlap'
p13
I-1
sS'minY'
p14
F0.0
sS'theme'
p15
(igraphic_interface.Settings.WorkTheme
SpectrogramTheme
p16
(dp17
S'background_color'
p18
S'000'
p19
sS'colorBarState'
p20
(dp21
S'ticks'
p22
(lp23
(F0.3333
(I185
I0
I0
I255
tp24
tp25
a(F0.6666
(I255
I220
I0
I255
tp26
tp27
a(I1
(I255
I255
I255
I255
tp28
tp29
a(I0
(I0
I0
I0
I255
tp30
tp31
asS'mode'
p32
S'rgb'
p33
ssS'gridY'
p34
I01
sS'histRange'
p35
(I-40
I0
tp36
sS'gridX'
p37
I01
sbsS'_FFTWindow'
p38
S'Hanning'
p39
sbsS'oneDimensionalWorkspace'
p40
g0
(cgraphic_interface.Settings.Workspace
OneDimensionalWorkspace
p41
g2
Ntp42
Rp43
(dp44
g15
(igraphic_interface.Settings.WorkTheme
OneDimensionalTheme
p45
(dp46
g34
I01
sg18
g19
sg37
I01
sS'plot_color'
p47
S'FFF'
p48
sbsbsS'language'
p49
V
p50
sS'oscillogramWorkspace'
p51
g0
(cgraphic_interface.Settings.Workspace
OscillogramWorkspace
p52
g2
Ntp53
Rp54
(dp55
g14
F-100.0
sg15
(igraphic_interface.Settings.WorkTheme
OscillogramTheme
p56
(dp57
g34
I01
sg18
g19
sg37
I01
sS'connectPoints'
p58
I01
sg47
S'CC3'
p59
sbsg11
F100.0
sbsS'detectionWorkspace'
p60
g0
(cgraphic_interface.Settings.Workspace
DetectionWorkspace
p61
g2
Ntp62
Rp63
(dp64
g15
(igraphic_interface.Settings.WorkTheme
DetectionTheme
p65
(dp66
S'endColor'
p67
g48
sS'quart2Color'
p68
g48
sS'startColor'
p69
g48
sS'quart1Color'
p70
g48
sS'centerColor'
p71
g48
sbsbsS'tabPosition'
p72
I0
sS'tabShape'
p73
I0
sS'theme_file'
p74
g50
sS'style'
p75
g50
sS'openedFiles'
p76
(lp77
S'E:/Biologia/ficheros de audio/Simples/2.wav'
p78
asS'recentFiles'
p79
(lp80
g78
asb.