ccopy_reg
_reconstructor
p0
(cgraphic_interface.Settings.Workspace
Workspace
p1
c__builtin__
object
p2
Ntp3
Rp4
(dp5
S'spectrogramWorkspace'
p6
g0
(cgraphic_interface.Settings.Workspace
SpectrogramWorkspace
p7
g2
Ntp8
Rp9
(dp10
S'maxY'
p11
F125000.0
sS'FFTSize'
p12
I512
sS'FFTOverlap'
p13
I-1
sS'minY'
p14
F0.0
sS'theme'
p15
(igraphic_interface.Settings.WorkTheme
SpectrogramTheme
p16
(dp17
S'background_color'
p18
S'000'
p19
sS'colorBarState'
p20
(dp21
S'ticks'
p22
(lp23
(F0.6666
(I255
I220
I0
I255
tp24
tp25
a(F0.3333
(I185
I0
I0
I255
tp26
tp27
a(I0
(I0
I0
I0
I255
tp28
tp29
a(I1
(I255
I255
I255
I255
tp30
tp31
asS'mode'
p32
S'rgb'
p33
ssS'gridY'
p34
I01
sS'histRange'
p35
(I-40
I0
tp36
sS'gridX'
p37
I01
sbsS'_FFTWindow'
p38
S'Hanning'
p39
sbsS'visibleOscilogram'
p40
I01
sS'oneDimensionalWorkspace'
p41
g0
(cgraphic_interface.Settings.Workspace
OneDimensionalWorkspace
p42
g2
Ntp43
Rp44
(dp45
g15
(igraphic_interface.Settings.WorkTheme
OneDimensionalTheme
p46
(dp47
g34
I01
sg18
g19
sg37
I01
sS'plot_color'
p48
S'FFF'
p49
sbsbsS'language'
p50
V
p51
sS'oscillogramWorkspace'
p52
g0
(cgraphic_interface.Settings.Workspace
OscillogramWorkspace
p53
g2
Ntp54
Rp55
(dp56
g14
F-100.0
sg15
(igraphic_interface.Settings.WorkTheme
OscillogramTheme
p57
(dp58
g34
I01
sg18
g19
sg37
I01
sS'connectPoints'
p59
I01
sg48
S'CC3'
p60
sbsg11
F100.0
sbsS'detectionWorkspace'
p61
g0
(cgraphic_interface.Settings.Workspace
DetectionWorkspace
p62
g2
Ntp63
Rp64
(dp65
g15
(igraphic_interface.Settings.WorkTheme
DetectionTheme
p66
(dp67
S'endColor'
p68
g49
sS'quart2Color'
p69
g49
sS'startColor'
p70
g49
sS'quart1Color'
p71
g49
sS'centerColor'
p72
g49
sbsbsS'tabPosition'
p73
I0
sS'tabShape'
p74
I0
sS'theme_file'
p75
g51
sS'style'
p76
Vstyles/classic.qss
p77
sS'openedFiles'
p78
(lp79
VE:/Biologia/ficheros de audio/Bats/Ef.wav
p80
asS'recentFiles'
p81
(lp82
S'E:/Biologia/ficheros de audio/_Calls duetto 04-2014/A. circumflexa.WAV'
p83
aS'E:/Biologia/ficheros de audio/Bats/Eg.wav'
p84
aS'E:/Biologia/ficheros de audio/Bats/Lp-labels.WAV'
p85
aS'E:/Biologia/ficheros de audio/Bats/Ef-labels.wav'
p86
aS'E:/Biologia/ficheros de audio/Bats/Ef.wav'
p87
asS'visibleSpectrogram'
p88
I01
sb.