ccopy_reg
_reconstructor
p0
(cgraphic_interface.Settings.Workspace
Workspace
p1
c__builtin__
object
p2
Ntp3
Rp4
(dp5
S'spectrogramWorkspace'
p6
g0
(cgraphic_interface.Settings.Workspace
SpectrogramWorkspace
p7
g2
Ntp8
Rp9
(dp10
S'maxY'
p11
F22050.0
sS'FFTSize'
p12
I512
sS'FFTOverlap'
p13
I-1
sS'minY'
p14
F0.0
sS'theme'
p15
(igraphic_interface.Settings.WorkTheme
SpectrogramTheme
p16
(dp17
S'background_color'
p18
S'000'
p19
sS'colorBarState'
p20
(dp21
S'ticks'
p22
(lp23
(F0.6666
(I255
I220
I0
I255
tp24
tp25
a(I1
(I255
I255
I255
I255
tp26
tp27
a(I0
(I0
I0
I0
I255
tp28
tp29
a(F0.3333
(I185
I0
I0
I255
tp30
tp31
asS'mode'
p32
S'rgb'
p33
ssS'gridY'
p34
I00
sS'histRange'
p35
(I-40
I0
tp36
sS'gridX'
p37
I00
sbsS'_FFTWindow'
p38
S'Hanning'
p39
sbsS'oneDimensionalWorkspace'
p40
g0
(cgraphic_interface.Settings.Workspace
OneDimensionalWorkspace
p41
g2
Ntp42
Rp43
(dp44
g15
(igraphic_interface.Settings.WorkTheme
OneDimensionalTheme
p45
(dp46
g34
I01
sg18
g19
sg37
I01
sS'plot_color'
p47
S'FFF'
p48
sbsbsS'language'
p49
VI18n/es_ES.qm
p50
sS'oscillogramWorkspace'
p51
g0
(cgraphic_interface.Settings.Workspace
OscillogramWorkspace
p52
g2
Ntp53
Rp54
(dp55
g14
F-100.0
sg15
(igraphic_interface.Settings.WorkTheme
OscillogramTheme
p56
(dp57
g34
I00
sg18
S'000'
p58
sg37
I00
sS'connectPoints'
p59
I01
sg47
S'CC3'
p60
sbsg11
F100.0
sbsS'detectionWorkspace'
p61
g0
(cgraphic_interface.Settings.Workspace
DetectionWorkspace
p62
g2
Ntp63
Rp64
(dp65
g15
(igraphic_interface.Settings.WorkTheme
DetectionTheme
p66
(dp67
S'endColor'
p68
g48
sS'quart2Color'
p69
g48
sS'startColor'
p70
g48
sS'quart1Color'
p71
g48
sS'centerColor'
p72
g48
sbsbsS'tabPosition'
p73
I0
sS'tabShape'
p74
I0
sS'theme_file'
p75
VUtils\u005cThemes/default.dth
p76
sS'style'
p77
Vstyles/default.qss
p78
sS'openedFiles'
p79
(lp80
sS'recentFiles'
p81
(lp82
S'E:/Biologia/ficheros de audio/Bat Calls/3. Noctilio leporinus/Noctilio leporinus.wav'
p83
aS'E:/Biologia/ficheros de audio/Bats/Ef-labels.wav'
p84
aS'E:/Biologia/ficheros de audio/Bats/Lp-labels.WAV'
p85
aS'E:/Biologia/ficheros de audio/Bats/Lp.WAV'
p86
aS'E:/Biologia/ficheros de audio/Bats/Eg-labels.wav'
p87
asb.