ccopy_reg
_reconstructor
p0
(cgraphic_interface.Settings.Workspace
Workspace
p1
c__builtin__
object
p2
Ntp3
Rp4
(dp5
S'spectrogramWorkspace'
p6
g0
(cgraphic_interface.Settings.Workspace
SpectrogramWorkspace
p7
g2
Ntp8
Rp9
(dp10
S'maxY'
p11
F125000.0
sS'FFTSize'
p12
I512
sS'FFTOverlap'
p13
I-1
sS'minY'
p14
I0
sS'theme'
p15
(igraphic_interface.Settings.WorkTheme
SpectrogramTheme
p16
(dp17
S'background_color'
p18
S'000'
p19
sS'colorBarState'
p20
(dp21
S'ticks'
p22
(lp23
(F0.6666
(I255
I220
I0
I255
tp24
tp25
a(I0
(I0
I0
I0
I255
tp26
tp27
a(F0.3333
(I185
I0
I0
I255
tp28
tp29
a(I1
(I255
I255
I255
I255
tp30
tp31
asS'mode'
p32
S'rgb'
p33
ssS'gridY'
p34
I01
sS'histRange'
p35
(I-54
F-9.5
tp36
sS'gridX'
p37
I01
sbsS'_FFTWindow'
p38
S'Hanning'
p39
sbsS'oneDimensionalWorkspace'
p40
g0
(cgraphic_interface.Settings.Workspace
OneDimensionalWorkspace
p41
g2
Ntp42
Rp43
(dp44
g15
(igraphic_interface.Settings.WorkTheme
OneDimensionalTheme
p45
(dp46
g34
I01
sg18
g19
sg37
I01
sS'plot_color'
p47
S'FFF'
p48
sbsbsS'language'
p49
VI18n/es_ES.qm
p50
sS'oscillogramWorkspace'
p51
g0
(cgraphic_interface.Settings.Workspace
OscillogramWorkspace
p52
g2
Ntp53
Rp54
(dp55
g14
F-1.0
sg15
(igraphic_interface.Settings.WorkTheme
OscillogramTheme
p56
(dp57
g34
I01
sg18
g19
sg37
I01
sS'connectPoints'
p58
I01
sg47
S'CC3'
p59
sbsg11
F1.0
sbsS'detectionWorkspace'
p60
g0
(cgraphic_interface.Settings.Workspace
DetectionWorkspace
p61
g2
Ntp62
Rp63
(dp64
g15
(igraphic_interface.Settings.WorkTheme
DetectionTheme
p65
(dp66
S'endColor'
p67
g48
sS'quart2Color'
p68
g48
sS'startColor'
p69
g48
sS'quart1Color'
p70
g48
sS'centerColor'
p71
g48
sbsbsS'tabPosition'
p72
csip
_unpickle_enum
p73
(S'PyQt4.QtGui'
p74
S'TabPosition'
p75
I1
tp76
Rp77
sS'tabShape'
p78
g73
(g74
S'TabShape'
p79
I0
tp80
Rp81
sS'style'
p82
Vstyles/classic.qss
p83
sS'openedFiles'
p84
(lp85
VD:/Fac Biologia/ficheros de audio/Clasif/c4d.wav
p86
asS'recentFiles'
p87
(lp88
csip
_unpickle_type
p89
(S'PyQt4.QtCore'
p90
S'QString'
p91
(VD:/Fac Biologia/ficheros de audio/Clasif/c2.wav
p92
tp93
tp94
Rp95
aVD:/Fac Biologia/ficheros de audio/1minute.wav
p96
aV..\u005c..\u005c..\u005c..\u005cficheros de audio\u005c1minute.wav
p97
aVD:/Fac Biologia/ficheros de audio/Playback_1.wav
p98
ag86
asb.